; ModuleID = '35/287.c'
source_filename = "35/287.c"
target datalayout = "e-m:e-p270:32:32-p271:32:32-p272:64:64-i64:64-f80:128-n8:16:32:64-S128"
target triple = "x86_64-pc-linux-gnu"

@.str = private unnamed_addr constant [6 x i8] c"%d,%d\00", align 1
@.str.1 = private unnamed_addr constant [3 x i8] c"%d\00", align 1
@.str.2 = private unnamed_addr constant [7 x i8] c"%d+%d\0A\00", align 1
@.str.3 = private unnamed_addr constant [4 x i8] c"No\0A\00", align 1

; Function Attrs: noinline nounwind uwtable
define dso_local i32 @main(i32 %0, i8** %1) #0 {
  %3 = alloca i32, align 4
  %4 = alloca i32, align 4
  %5 = alloca i8**, align 8
  %6 = alloca i32, align 4
  %7 = alloca i32, align 4
  %8 = alloca i32, align 4
  %9 = alloca i32, align 4
  %10 = alloca i32, align 4
  %11 = alloca i32, align 4
  %12 = alloca i32, align 4
  %13 = alloca [8 x [8 x i32]], align 16
  %14 = alloca i32, align 4
  %15 = alloca i32, align 4
  store i32 0, i32* %3, align 4
  store i32 %0, i32* %4, align 4
  store i8** %1, i8*** %5, align 8
  store i32 0, i32* %12, align 4
  %16 = call i32 (i8*, ...) @__isoc99_scanf(i8* getelementptr inbounds ([6 x i8], [6 x i8]* @.str, i64 0, i64 0), i32* %8, i32* %9)
  store i32 0, i32* %6, align 4
  br label %17

17:                                               ; preds = %38, %2
  %18 = load i32, i32* %6, align 4
  %19 = load i32, i32* %8, align 4
  %20 = icmp slt i32 %18, %19
  br i1 %20, label %21, label %41

21:                                               ; preds = %17
  store i32 0, i32* %7, align 4
  br label %22

22:                                               ; preds = %34, %21
  %23 = load i32, i32* %7, align 4
  %24 = load i32, i32* %9, align 4
  %25 = icmp slt i32 %23, %24
  br i1 %25, label %26, label %37

26:                                               ; preds = %22
  %27 = load i32, i32* %6, align 4
  %28 = sext i32 %27 to i64
  %29 = getelementptr inbounds [8 x [8 x i32]], [8 x [8 x i32]]* %13, i64 0, i64 %28
  %30 = load i32, i32* %7, align 4
  %31 = sext i32 %30 to i64
  %32 = getelementptr inbounds [8 x i32], [8 x i32]* %29, i64 0, i64 %31
  %33 = call i32 (i8*, ...) @__isoc99_scanf(i8* getelementptr inbounds ([3 x i8], [3 x i8]* @.str.1, i64 0, i64 0), i32* %32)
  br label %34

34:                                               ; preds = %26
  %35 = load i32, i32* %7, align 4
  %36 = add nsw i32 %35, 1
  store i32 %36, i32* %7, align 4
  br label %22

37:                                               ; preds = %22
  br label %38

38:                                               ; preds = %37
  %39 = load i32, i32* %6, align 4
  %40 = add nsw i32 %39, 1
  store i32 %40, i32* %6, align 4
  br label %17

41:                                               ; preds = %17
  store i32 0, i32* %6, align 4
  br label %42

42:                                               ; preds = %117, %41
  %43 = load i32, i32* %6, align 4
  %44 = load i32, i32* %8, align 4
  %45 = icmp slt i32 %43, %44
  br i1 %45, label %46, label %120

46:                                               ; preds = %42
  %47 = load i32, i32* %6, align 4
  %48 = sext i32 %47 to i64
  %49 = getelementptr inbounds [8 x [8 x i32]], [8 x [8 x i32]]* %13, i64 0, i64 %48
  %50 = getelementptr inbounds [8 x i32], [8 x i32]* %49, i64 0, i64 0
  %51 = load i32, i32* %50, align 16
  store i32 %51, i32* %14, align 4
  store i32 0, i32* %7, align 4
  br label %52

52:                                               ; preds = %76, %46
  %53 = load i32, i32* %7, align 4
  %54 = load i32, i32* %9, align 4
  %55 = icmp slt i32 %53, %54
  br i1 %55, label %56, label %79

56:                                               ; preds = %52
  %57 = load i32, i32* %6, align 4
  %58 = sext i32 %57 to i64
  %59 = getelementptr inbounds [8 x [8 x i32]], [8 x [8 x i32]]* %13, i64 0, i64 %58
  %60 = load i32, i32* %7, align 4
  %61 = sext i32 %60 to i64
  %62 = getelementptr inbounds [8 x i32], [8 x i32]* %59, i64 0, i64 %61
  %63 = load i32, i32* %62, align 4
  %64 = load i32, i32* %14, align 4
  %65 = icmp sge i32 %63, %64
  br i1 %65, label %66, label %75

66:                                               ; preds = %56
  %67 = load i32, i32* %6, align 4
  %68 = sext i32 %67 to i64
  %69 = getelementptr inbounds [8 x [8 x i32]], [8 x [8 x i32]]* %13, i64 0, i64 %68
  %70 = load i32, i32* %7, align 4
  %71 = sext i32 %70 to i64
  %72 = getelementptr inbounds [8 x i32], [8 x i32]* %69, i64 0, i64 %71
  %73 = load i32, i32* %72, align 4
  store i32 %73, i32* %14, align 4
  %74 = load i32, i32* %7, align 4
  store i32 %74, i32* %10, align 4
  br label %75

75:                                               ; preds = %66, %56
  br label %76

76:                                               ; preds = %75
  %77 = load i32, i32* %7, align 4
  %78 = add nsw i32 %77, 1
  store i32 %78, i32* %7, align 4
  br label %52

79:                                               ; preds = %52
  store i32 0, i32* %6, align 4
  br label %80

80:                                               ; preds = %105, %79
  %81 = load i32, i32* %6, align 4
  %82 = load i32, i32* %8, align 4
  %83 = icmp slt i32 %81, %82
  br i1 %83, label %84, label %108

84:                                               ; preds = %80
  %85 = load i32, i32* %14, align 4
  store i32 %85, i32* %15, align 4
  %86 = load i32, i32* %6, align 4
  %87 = sext i32 %86 to i64
  %88 = getelementptr inbounds [8 x [8 x i32]], [8 x [8 x i32]]* %13, i64 0, i64 %87
  %89 = load i32, i32* %10, align 4
  %90 = sext i32 %89 to i64
  %91 = getelementptr inbounds [8 x i32], [8 x i32]* %88, i64 0, i64 %90
  %92 = load i32, i32* %91, align 4
  %93 = load i32, i32* %15, align 4
  %94 = icmp sle i32 %92, %93
  br i1 %94, label %95, label %104

95:                                               ; preds = %84
  %96 = load i32, i32* %6, align 4
  %97 = sext i32 %96 to i64
  %98 = getelementptr inbounds [8 x [8 x i32]], [8 x [8 x i32]]* %13, i64 0, i64 %97
  %99 = load i32, i32* %10, align 4
  %100 = sext i32 %99 to i64
  %101 = getelementptr inbounds [8 x i32], [8 x i32]* %98, i64 0, i64 %100
  %102 = load i32, i32* %101, align 4
  store i32 %102, i32* %15, align 4
  %103 = load i32, i32* %6, align 4
  store i32 %103, i32* %11, align 4
  br label %104

104:                                              ; preds = %95, %84
  br label %105

105:                                              ; preds = %104
  %106 = load i32, i32* %6, align 4
  %107 = add nsw i32 %106, 1
  store i32 %107, i32* %6, align 4
  br label %80

108:                                              ; preds = %80
  %109 = load i32, i32* %14, align 4
  %110 = load i32, i32* %15, align 4
  %111 = icmp eq i32 %109, %110
  br i1 %111, label %112, label %116

112:                                              ; preds = %108
  %113 = load i32, i32* %11, align 4
  %114 = load i32, i32* %10, align 4
  %115 = call i32 (i8*, ...) @printf(i8* getelementptr inbounds ([7 x i8], [7 x i8]* @.str.2, i64 0, i64 0), i32 %113, i32 %114)
  store i32 1, i32* %12, align 4
  br label %120

116:                                              ; preds = %108
  br label %117

117:                                              ; preds = %116
  %118 = load i32, i32* %6, align 4
  %119 = add nsw i32 %118, 1
  store i32 %119, i32* %6, align 4
  br label %42

120:                                              ; preds = %112, %42
  %121 = load i32, i32* %12, align 4
  %122 = icmp eq i32 %121, 0
  br i1 %122, label %123, label %125

123:                                              ; preds = %120
  %124 = call i32 (i8*, ...) @printf(i8* getelementptr inbounds ([4 x i8], [4 x i8]* @.str.3, i64 0, i64 0))
  br label %125

125:                                              ; preds = %123, %120
  ret i32 0
}

declare dso_local i32 @__isoc99_scanf(i8*, ...) #1

declare dso_local i32 @printf(i8*, ...) #1


!llvm.module.flags = !{!0}
!llvm.ident = !{!1}

!0 = !{i32 1, !"wchar_size", i32 4}
!1 = !{!"clang version 10.0.0-4ubuntu1 "}
